; Function Attrs: nounwind uwtable
define hidden i32 @psa_driver_wrapper_hash_clone(ptr noundef %0, ptr noundef %1) local_unnamed_addr #1 {
  %3 = load i32, ptr %0, align 8
  %cond = icmp eq i32 %3, 1
  br i1 %cond, label %4, label %8

4:                                                ; preds = %2
  store i32 1, ptr %1, align 8
  %5 = getelementptr inbounds nuw i8, ptr %0, i64 8
  %6 = getelementptr inbounds nuw i8, ptr %1, i64 8
  %7 = tail call i32 @mbedtls_psa_hash_clone(ptr noundef nonnull %5, ptr noundef nonnull %6) #5
  br label %8

8:                                                ; preds = %2, %4
  %.0 = phi i32 [ %7, %4 ], [ -137, %2 ]
  ret i32 %.0
}